; Function Attrs: nounwind uwtable
define hidden i32 @lj_crecord_loadiu64(ptr noundef %0, i32 noundef %1, ptr noundef readonly captures(none) %2) local_unnamed_addr #0 {
  %4 = and i32 %1, 520093696
  %5 = icmp eq i32 %4, 167772160
  br i1 %5, label %argv2cdata.exit, label %6

6:                                                ; preds = %3
  tail call void @lj_trace_err(ptr noundef %0, i32 noundef 11) #7
  unreachable

argv2cdata.exit:                                  ; preds = %3
  %7 = load i64, ptr %2, align 8, !tbaa !31
  %8 = and i64 %7, 140737488355327
  %9 = inttoptr i64 %8 to ptr
  %10 = trunc i32 %1 to i16
  %11 = getelementptr inbounds nuw i8, ptr %0, i64 184
  %12 = getelementptr inbounds nuw i8, ptr %0, i64 188
  store i16 17682, ptr %12, align 4, !tbaa !31
  store i16 %10, ptr %11, align 8, !tbaa !31
  %13 = getelementptr inbounds nuw i8, ptr %0, i64 186
  store i16 20, ptr %13, align 2, !tbaa !31
  %14 = tail call i32 @lj_opt_fold(ptr noundef %0) #8
  %15 = trunc i32 %14 to i16
  %16 = getelementptr inbounds nuw i8, ptr %9, i64 10
  %17 = load i16, ptr %16, align 2, !tbaa !32
  %18 = zext i16 %17 to i32
  %19 = tail call i32 @lj_ir_kint(ptr noundef %0, i32 noundef %18) #8
  %20 = trunc i32 %19 to i16
  store i16 2195, ptr %12, align 4, !tbaa !31
  store i16 %15, ptr %11, align 8, !tbaa !31
  store i16 %20, ptr %13, align 2, !tbaa !31
  %21 = tail call i32 @lj_opt_fold(ptr noundef %0) #8
  %22 = load i16, ptr %16, align 2, !tbaa !32
  %23 = add i16 %22, -11
  %or.cond = icmp ult i16 %23, 2
  br i1 %or.cond, label %25, label %24

24:                                               ; preds = %argv2cdata.exit
  tail call void @lj_trace_err(ptr noundef nonnull %0, i32 noundef 11) #7
  unreachable

25:                                               ; preds = %argv2cdata.exit
  %26 = icmp eq i16 %22, 11
  %27 = select i1 %26, i16 17685, i16 17686
  store i16 %27, ptr %12, align 4, !tbaa !31
  store i16 %10, ptr %11, align 8, !tbaa !31
  store i16 23, ptr %13, align 2, !tbaa !31
  %28 = tail call i32 @lj_opt_fold(ptr noundef nonnull %0) #8
  ret i32 %28
}